; ModuleID = 'source-C-CXX/27/298.c'
source_filename = "source-C-CXX/27/298.c"
target datalayout = "e-m:e-p270:32:32-p271:32:32-p272:64:64-i64:64-f80:128-n8:16:32:64-S128"
target triple = "x86_64-pc-linux-gnu"

@.str = private unnamed_addr constant [4 x i8] c"%d,\00", align 1
@.str.1 = private unnamed_addr constant [3 x i8] c"%d\00", align 1

; Function Attrs: nounwind sspstrong uwtable
define dso_local i32 @main() local_unnamed_addr #0 {
  %1 = alloca [1000 x i8], align 16
  %2 = getelementptr inbounds [1000 x i8], [1000 x i8]* %1, i64 0, i64 0
  call void @llvm.lifetime.start.p0i8(i64 1000, i8* nonnull %2) #5
  %3 = call i32 (i8*, ...) bitcast (i32 (...)* @gets to i32 (i8*, ...)*)(i8* nonnull %2) #5
  %4 = call i64 @strlen(i8* noundef nonnull %2) #6
  %5 = trunc i64 %4 to i32
  %6 = shl i64 %4, 32
  %7 = ashr exact i64 %6, 32
  %8 = getelementptr inbounds [1000 x i8], [1000 x i8]* %1, i64 0, i64 %7
  store i8 32, i8* %8, align 1, !tbaa !5
  %9 = icmp slt i32 %5, 0
  br i1 %9, label %39, label %10

10:                                               ; preds = %0
  %11 = shl i64 %4, 32
  %12 = ashr exact i64 %11, 32
  %13 = and i64 %4, 4294967295
  %14 = add i64 %4, 1
  %15 = and i64 %14, 4294967295
  br label %16

16:                                               ; preds = %10, %35
  %17 = phi i64 [ 0, %10 ], [ %37, %35 ]
  %18 = phi i32 [ 0, %10 ], [ %36, %35 ]
  %19 = getelementptr inbounds [1000 x i8], [1000 x i8]* %1, i64 0, i64 %17
  %20 = load i8, i8* %19, align 1, !tbaa !5
  %21 = icmp eq i8 %20, 32
  br i1 %21, label %24, label %22

22:                                               ; preds = %16
  %23 = add nsw i32 %18, 1
  br label %35

24:                                               ; preds = %16
  %25 = icmp slt i64 %17, %12
  %26 = icmp ne i32 %18, 0
  %27 = select i1 %25, i1 %26, i1 false
  br i1 %27, label %28, label %30

28:                                               ; preds = %24
  %29 = call i32 (i8*, ...) @printf(i8* nonnull dereferenceable(1) getelementptr inbounds ([4 x i8], [4 x i8]* @.str, i64 0, i64 0), i32 %18)
  br label %30

30:                                               ; preds = %28, %24
  %31 = icmp eq i64 %17, %13
  %32 = select i1 %31, i1 %26, i1 false
  br i1 %32, label %33, label %35

33:                                               ; preds = %30
  %34 = call i32 (i8*, ...) @printf(i8* nonnull dereferenceable(1) getelementptr inbounds ([3 x i8], [3 x i8]* @.str.1, i64 0, i64 0), i32 %18)
  br label %35

35:                                               ; preds = %30, %33, %22
  %36 = phi i32 [ %23, %22 ], [ 0, %33 ], [ 0, %30 ]
  %37 = add nuw nsw i64 %17, 1
  %38 = icmp eq i64 %37, %15
  br i1 %38, label %39, label %16, !llvm.loop !8

39:                                               ; preds = %35, %0
  call void @llvm.lifetime.end.p0i8(i64 1000, i8* nonnull %2) #5
  ret i32 0
}

; Function Attrs: argmemonly mustprogress nofree nosync nounwind willreturn
declare void @llvm.lifetime.start.p0i8(i64 immarg, i8* nocapture) #1

declare i32 @gets(...) local_unnamed_addr #2

; Function Attrs: argmemonly mustprogress nofree nounwind readonly willreturn
declare i64 @strlen(i8* nocapture) local_unnamed_addr #3

; Function Attrs: nofree nounwind
declare noundef i32 @printf(i8* nocapture noundef readonly, ...) local_unnamed_addr #4

; Function Attrs: argmemonly mustprogress nofree nosync nounwind willreturn
declare void @llvm.lifetime.end.p0i8(i64 immarg, i8* nocapture) #1


!llvm.module.flags = !{!0, !1, !2, !3}
!llvm.ident = !{!4}

!0 = !{i32 1, !"wchar_size", i32 4}
!1 = !{i32 7, !"PIC Level", i32 2}
!2 = !{i32 7, !"PIE Level", i32 2}
!3 = !{i32 7, !"uwtable", i32 1}
!4 = !{!"clang version 13.0.0"}
!5 = !{!6, !6, i64 0}
!6 = !{!"omnipotent char", !7, i64 0}
!7 = !{!"Simple C/C++ TBAA"}
!8 = distinct !{!8, !9}
!9 = !{!"llvm.loop.mustprogress"}
